target datalayout = "e-m:e-p270:32:32-p271:32:32-p272:64:64-i64:64-i128:128-f80:128-n8:16:32:64-S128"
target triple = "x86_64-pc-linux-gnu"

%struct._GdkEventButton = type { i32, ptr, i8, i32, double, double, ptr, i32, i32, ptr, double, double }

; Function Attrs: nounwind uwtable
define internal i32 @_side_panel_press(ptr noundef %0, ptr noundef %1, ptr noundef %2) #0 {
  %4 = alloca ptr, align 8
  %5 = alloca ptr, align 8
  %6 = alloca ptr, align 8
  store ptr %0, ptr %4, align 8, !tbaa !6
  store ptr %1, ptr %5, align 8, !tbaa !175
  store ptr %2, ptr %6, align 8, !tbaa !99
  %7 = load ptr, ptr %5, align 8, !tbaa !175
  %8 = getelementptr inbounds nuw %struct._GdkEventButton, ptr %7, i32 0, i32 8
  %9 = load i32, ptr %8, align 4, !tbaa !117
  %10 = icmp eq i32 %9, 3
  br i1 %10, label %11, label %12

11:                                               ; preds = %3
  call void @_add_remove_modules(ptr noundef null)
  br label %12

12:                                               ; preds = %11, %3
  ret i32 1
}