; Function Attrs: nounwind uwtable
define internal noundef i32 @_side_panel_press(ptr readnone captures(none) %0, ptr noundef readonly captures(none) %1, ptr readnone captures(none) %2) #0 {
  %4 = getelementptr inbounds nuw i8, ptr %1, i64 52
  %5 = load i32, ptr %4, align 4, !tbaa !94
  %6 = icmp eq i32 %5, 3
  br i1 %6, label %7, label %8

7:                                                ; preds = %3
  tail call void @_add_remove_modules(ptr poison)
  br label %8

8:                                                ; preds = %7, %3
  ret i32 1
}